/*
 * Intel ACPI Component Architecture
 * AML/ASL+ Disassembler version 20141107-64 [Dec  2 2014]
 * Copyright (c) 2000 - 2014 Intel Corporation
 * 
 * Disassembling to symbolic ASL+ operators
 *
 * Disassembly of DMAR, Fri Feb 13 14:12:02 2015
 *
 * ACPI Data Table [DMAR]
 *
 * Format: [HexOffset DecimalOffset ByteLength]  FieldName : FieldValue
 */

[000h 0000   4]                    Signature : "DMAR"    [DMA Remapping table]
[004h 0004   4]                 Table Length : 000000F0
[008h 0008   1]                     Revision : 01
[009h 0009   1]                     Checksum : 2C
[00Ah 0010   6]                       Oem ID : "INTEL "
[010h 0016   8]                 Oem Table ID : "BDW "
[018h 0024   4]                 Oem Revision : 00000001
[01Ch 0028   4]              Asl Compiler ID : "INTL"
[020h 0032   4]        Asl Compiler Revision : 00000001

[024h 0036   1]           Host Address Width : 26
[025h 0037   1]                        Flags : 03
[026h 0038  10]                     Reserved : 00 00 00 00 00 00 00 00 00 00

[030h 0048   2]                Subtable Type : 0000 [Hardware Unit Definition]
[032h 0050   2]                       Length : 0018

[034h 0052   1]                        Flags : 00
[035h 0053   1]                     Reserved : 00
[036h 0054   2]           PCI Segment Number : 0000
[038h 0056   8]        Register Base Address : 00000000FED90000

[040h 0064   1]            Device Scope Type : 01 [PCI Endpoint Device]
[041h 0065   1]                 Entry Length : 08
[042h 0066   2]                     Reserved : 0000
[044h 0068   1]               Enumeration ID : 00
[045h 0069   1]               PCI Bus Number : 00

[046h 0070   2]                     PCI Path : 02,00


[048h 0072   2]                Subtable Type : 0000 [Hardware Unit Definition]
[04Ah 0074   2]                       Length : 0030

[04Ch 0076   1]                        Flags : 01
[04Dh 0077   1]                     Reserved : 00
[04Eh 0078   2]           PCI Segment Number : 0000
[050h 0080   8]        Register Base Address : 00000000FED91000

[058h 0088   1]            Device Scope Type : 03 [IOAPIC Device]
[059h 0089   1]                 Entry Length : 08
[05Ah 0090   2]                     Reserved : 0000
[05Ch 0092   1]               Enumeration ID : 02
[05Dh 0093   1]               PCI Bus Number : F0

[05Eh 0094   2]                     PCI Path : 1F,00


[060h 0096   1]            Device Scope Type : 04 [Message-capable HPET Device]
[061h 0097   1]                 Entry Length : 08
[062h 0098   2]                     Reserved : 0000
[064h 0100   1]               Enumeration ID : 00
[065h 0101   1]               PCI Bus Number : F0

[066h 0102   2]                     PCI Path : 0F,00


[068h 0104   1]            Device Scope Type : 05 [Namespace Device]
[069h 0105   1]                 Entry Length : 08
[06Ah 0106   2]                     Reserved : 0000
[06Ch 0108   1]               Enumeration ID : 01
[06Dh 0109   1]               PCI Bus Number : 00

[06Eh 0110   2]                     PCI Path : 15,00


[070h 0112   1]            Device Scope Type : 05 [Namespace Device]
[071h 0113   1]                 Entry Length : 08
[072h 0114   2]                     Reserved : 0000
[074h 0116   1]               Enumeration ID : 03
[075h 0117   1]               PCI Bus Number : 00

[076h 0118   2]                     PCI Path : 13,00


[078h 0120   2]                Subtable Type : 0001 [Reserved Memory Region]
[07Ah 0122   2]                       Length : 0020

[07Ch 0124   2]                     Reserved : 0000
[07Eh 0126   2]           PCI Segment Number : 0000
[080h 0128   8]                 Base Address : 00000000DB9EE000
[088h 0136   8]          End Address (limit) : 00000000DB9FCFFF

[090h 0144   1]            Device Scope Type : 01 [PCI Endpoint Device]
[091h 0145   1]                 Entry Length : 08
[092h 0146   2]                     Reserved : 0000
[094h 0148   1]               Enumeration ID : 00
[095h 0149   1]               PCI Bus Number : 00

[096h 0150   2]                     PCI Path : 14,00


[098h 0152   2]                Subtable Type : 0001 [Reserved Memory Region]
[09Ah 0154   2]                       Length : 0020

[09Ch 0156   2]                     Reserved : 0000
[09Eh 0158   2]           PCI Segment Number : 0000
[0A0h 0160   8]                 Base Address : 00000000DD000000
[0A8h 0168   8]          End Address (limit) : 00000000DF7FFFFF

[0B0h 0176   1]            Device Scope Type : 01 [PCI Endpoint Device]
[0B1h 0177   1]                 Entry Length : 08
[0B2h 0178   2]                     Reserved : 0000
[0B4h 0180   1]               Enumeration ID : 00
[0B5h 0181   1]               PCI Bus Number : 00

[0B6h 0182   2]                     PCI Path : 02,00


[0B8h 0184   2]                Subtable Type : 0004 [ACPI Namespace Device Declaration]
[0BAh 0186   2]                       Length : 001C

[0BCh 0188   3]                     Reserved : 000000
[0BFh 0191   1]                Device Number : 01
[0C0h 0192  15]                  Device Name : "\_SB.PCI0.SDMA"

[0D4h 0212   2]                Subtable Type : 0004 [ACPI Namespace Device Declaration]
[0D6h 0214   2]                       Length : 001C

[0D8h 0216   3]                     Reserved : 000000
[0DBh 0219   1]                Device Number : 03
[0DCh 0220  15]                  Device Name : "\_SB.PCI0.ADSP"

Raw Table Data: Length 240 (0xF0)

  0000: 44 4D 41 52 F0 00 00 00 01 2C 49 4E 54 45 4C 20  DMAR.....,INTEL 
  0010: 42 44 57 20 00 00 00 00 01 00 00 00 49 4E 54 4C  BDW ........INTL
  0020: 01 00 00 00 26 03 00 00 00 00 00 00 00 00 00 00  ....&...........
  0030: 00 00 18 00 00 00 00 00 00 00 D9 FE 00 00 00 00  ................
  0040: 01 08 00 00 00 00 02 00 00 00 30 00 01 00 00 00  ..........0.....
  0050: 00 10 D9 FE 00 00 00 00 03 08 00 00 02 F0 1F 00  ................
  0060: 04 08 00 00 00 F0 0F 00 05 08 00 00 01 00 15 00  ................
  0070: 05 08 00 00 03 00 13 00 01 00 20 00 00 00 00 00  .......... .....
  0080: 00 E0 9E DB 00 00 00 00 FF CF 9F DB 00 00 00 00  ................
  0090: 01 08 00 00 00 00 14 00 01 00 20 00 00 00 00 00  .......... .....
  00A0: 00 00 00 DD 00 00 00 00 FF FF 7F DF 00 00 00 00  ................
  00B0: 01 08 00 00 00 00 02 00 04 00 1C 00 00 00 00 01  ................
  00C0: 5C 5F 53 42 2E 50 43 49 30 2E 53 44 4D 41 00 00  \_SB.PCI0.SDMA..
  00D0: 00 00 00 00 04 00 1C 00 00 00 00 03 5C 5F 53 42  ............\_SB
  00E0: 2E 50 43 49 30 2E 41 44 53 50 00 00 00 00 00 00  .PCI0.ADSP......
